target datalayout = "e-m:e-p270:32:32-p271:32:32-p272:64:64-i64:64-i128:128-f80:128-n8:16:32:64-S128"
target triple = "x86_64-pc-linux-gnu"

%struct.replay_opts = type { i32, i32, i32, i32, i32, i32, i32, i32, i32, i32, i32, i32, i32, i32, i32, i32, i32, i32, ptr, i32, i32, ptr, ptr, %struct.strvec, ptr, %struct.object_id, i32, ptr, ptr }
%struct.strvec = type { ptr, i64, i64 }
%struct.object_id = type { [32 x i8], i32 }
%struct.option = type { i32, i32, ptr, ptr, ptr, ptr, i32, ptr, i64, ptr, i64, ptr }

@.str.33 = private unnamed_addr constant [1 x i8] zeroinitializer, align 1
@.str.73 = private unnamed_addr constant [47 x i8] c"option `%s' expects a number greater than zero\00", align 1
@git_gettext_enabled = external global i32, align 4

; Function Attrs: inlinehint nounwind uwtable
define internal i32 @const_error() #5 {
  ret i32 -1
}

; Function Attrs: inlinehint nounwind uwtable
define internal ptr @_(ptr noundef %0) #5 {
  %2 = alloca ptr, align 8
  %3 = alloca ptr, align 8
  store ptr %0, ptr %3, align 8, !tbaa !11
  %4 = load ptr, ptr %3, align 8, !tbaa !11
  %5 = load i8, ptr %4, align 1, !tbaa !76
  %6 = icmp ne i8 %5, 0
  br i1 %6, label %8, label %7

7:                                                ; preds = %1
  store ptr @.str.33, ptr %2, align 8
  br label %16

8:                                                ; preds = %1
  %9 = load i32, ptr @git_gettext_enabled, align 4, !tbaa !4
  %10 = icmp ne i32 %9, 0
  br i1 %10, label %13, label %11

11:                                               ; preds = %8
  %12 = load ptr, ptr %3, align 8, !tbaa !11
  store ptr %12, ptr %2, align 8
  br label %16

13:                                               ; preds = %8
  %14 = load ptr, ptr %3, align 8, !tbaa !11
  %15 = call ptr @dcgettext(ptr noundef null, ptr noundef %14, i32 noundef 5) #9
  store ptr %15, ptr %2, align 8
  br label %16

16:                                               ; preds = %13, %11, %7
  %17 = load ptr, ptr %2, align 8
  ret ptr %17
}

; Function Attrs: nounwind uwtable
define internal i32 @option_parse_m(ptr noundef %0, ptr noundef %1, i32 noundef %2) #0 {
  %4 = alloca i32, align 4
  %5 = alloca ptr, align 8
  %6 = alloca ptr, align 8
  %7 = alloca i32, align 4
  %8 = alloca ptr, align 8
  %9 = alloca ptr, align 8
  %10 = alloca i32, align 4
  store ptr %0, ptr %5, align 8, !tbaa !40
  store ptr %1, ptr %6, align 8, !tbaa !11
  store i32 %2, ptr %7, align 4, !tbaa !4
  call void @llvm.lifetime.start.p0(i64 8, ptr %8) #9
  %11 = load ptr, ptr %5, align 8, !tbaa !40
  %12 = getelementptr inbounds nuw %struct.option, ptr %11, i32 0, i32 3
  %13 = load ptr, ptr %12, align 8, !tbaa !31
  store ptr %13, ptr %8, align 8, !tbaa !25
  call void @llvm.lifetime.start.p0(i64 8, ptr %9) #9
  %14 = load i32, ptr %7, align 4, !tbaa !4
  %15 = icmp ne i32 %14, 0
  br i1 %15, label %16, label %19

16:                                               ; preds = %3
  %17 = load ptr, ptr %8, align 8, !tbaa !25
  %18 = getelementptr inbounds nuw %struct.replay_opts, ptr %17, i32 0, i32 17
  store i32 0, ptr %18, align 4, !tbaa !67
  store i32 0, ptr %4, align 4
  store i32 1, ptr %10, align 4
  br label %42

19:                                               ; preds = %3
  %20 = load ptr, ptr %6, align 8, !tbaa !11
  %21 = call i64 @strtol(ptr noundef %20, ptr noundef %9, i32 noundef 10) #9
  %22 = trunc i64 %21 to i32
  %23 = load ptr, ptr %8, align 8, !tbaa !25
  %24 = getelementptr inbounds nuw %struct.replay_opts, ptr %23, i32 0, i32 17
  store i32 %22, ptr %24, align 4, !tbaa !67
  %25 = load ptr, ptr %9, align 8, !tbaa !11
  %26 = load i8, ptr %25, align 1, !tbaa !76
  %27 = sext i8 %26 to i32
  %28 = icmp ne i32 %27, 0
  br i1 %28, label %34, label %29

29:                                               ; preds = %19
  %30 = load ptr, ptr %8, align 8, !tbaa !25
  %31 = getelementptr inbounds nuw %struct.replay_opts, ptr %30, i32 0, i32 17
  %32 = load i32, ptr %31, align 4, !tbaa !67
  %33 = icmp sle i32 %32, 0
  br i1 %33, label %34, label %41

34:                                               ; preds = %29, %19
  %35 = call ptr @_(ptr noundef @.str.73)
  %36 = load ptr, ptr %5, align 8, !tbaa !40
  %37 = getelementptr inbounds nuw %struct.option, ptr %36, i32 0, i32 2
  %38 = load ptr, ptr %37, align 8, !tbaa !30
  %39 = call i32 (ptr, ...) @error(ptr noundef %35, ptr noundef %38)
  %40 = call i32 @const_error()
  store i32 %40, ptr %4, align 4
  store i32 1, ptr %10, align 4
  br label %42

41:                                               ; preds = %29
  store i32 0, ptr %4, align 4
  store i32 1, ptr %10, align 4
  br label %42

42:                                               ; preds = %41, %34, %16
  call void @llvm.lifetime.end.p0(i64 8, ptr %9) #9
  call void @llvm.lifetime.end.p0(i64 8, ptr %8) #9
  %43 = load i32, ptr %4, align 4
  ret i32 %43
}