; Function Attrs: nounwind uwtable
define internal range(i32 -1, 1) i32 @option_parse_m(ptr noundef readonly captures(none) %0, ptr noundef %1, i32 noundef %2) #0 {
  %4 = alloca ptr, align 8
  %5 = getelementptr inbounds nuw i8, ptr %0, i64 16
  %6 = load ptr, ptr %5, align 8, !tbaa !26
  call void @llvm.lifetime.start.p0(i64 8, ptr nonnull %4) #13
  %.not = icmp eq i32 %2, 0
  br i1 %.not, label %9, label %7

7:                                                ; preds = %3
  %8 = getelementptr inbounds nuw i8, ptr %6, i64 68
  store i32 0, ptr %8, align 4, !tbaa !59
  br label %23

9:                                                ; preds = %3
  %10 = call i64 @strtol(ptr noundef %1, ptr noundef nonnull %4, i32 noundef 10) #13
  %11 = trunc i64 %10 to i32
  %12 = getelementptr inbounds nuw i8, ptr %6, i64 68
  store i32 %11, ptr %12, align 4, !tbaa !59
  %13 = load ptr, ptr %4, align 8, !tbaa !20
  %14 = load i8, ptr %13, align 1, !tbaa !68
  %.not7 = icmp ne i8 %14, 0
  %15 = icmp slt i32 %11, 1
  %or.cond = select i1 %.not7, i1 true, i1 %15
  br i1 %or.cond, label %16, label %23

16:                                               ; preds = %9
  %17 = load i32, ptr @git_gettext_enabled, align 4, !tbaa !21
  %.not4.i = icmp eq i32 %17, 0
  br i1 %.not4.i, label %_.exit, label %18

18:                                               ; preds = %16
  %19 = tail call ptr @dcgettext(ptr noundef null, ptr noundef nonnull @.str.73, i32 noundef 5) #13
  br label %_.exit

_.exit:                                           ; preds = %16, %18
  %.0.i = phi ptr [ %19, %18 ], [ @.str.73, %16 ]
  %20 = getelementptr inbounds nuw i8, ptr %0, i64 8
  %21 = load ptr, ptr %20, align 8, !tbaa !25
  %22 = tail call i32 (ptr, ...) @error(ptr noundef %.0.i, ptr noundef %21) #13
  br label %23

23:                                               ; preds = %9, %_.exit, %7
  %.0 = phi i32 [ 0, %7 ], [ -1, %_.exit ], [ 0, %9 ]
  call void @llvm.lifetime.end.p0(i64 8, ptr nonnull %4) #13
  ret i32 %.0
}